; Function Attrs: nounwind uwtable
define internal ptr @nonmodule_bar(ptr readnone captures(none) %0, ptr noundef %1) #0 {
  %3 = alloca i64, align 8
  %4 = alloca i64, align 8
  call void @llvm.lifetime.start.p0(i64 8, ptr nonnull %3) #4
  call void @llvm.lifetime.start.p0(i64 8, ptr nonnull %4) #4
  %5 = call i32 (ptr, ptr, ...) @PyArg_ParseTuple(ptr noundef %1, ptr noundef nonnull @.str.38, ptr noundef nonnull %3, ptr noundef nonnull %4) #4
  %.not = icmp eq i32 %5, 0
  br i1 %.not, label %11, label %6

6:                                                ; preds = %2
  %7 = load i64, ptr %3, align 8, !tbaa !9
  %8 = load i64, ptr %4, align 8, !tbaa !9
  %9 = sub i64 %7, %8
  %10 = call ptr @PyLong_FromLong(i64 noundef %9) #4
  br label %11

11:                                               ; preds = %2, %6
  %.0 = phi ptr [ %10, %6 ], [ null, %2 ]
  call void @llvm.lifetime.end.p0(i64 8, ptr nonnull %4) #4
  call void @llvm.lifetime.end.p0(i64 8, ptr nonnull %3) #4
  ret ptr %.0
}